; Function Attrs: null_pointer_is_valid sspstrong uwtable
define internal i32 @netdfs_dissect_dfs_Remove_request(ptr noundef %0, i32 noundef %1, ptr noundef %2, ptr noundef %3, ptr noundef initializes((72, 80)) %4, ptr noundef %5) #0 {
  %7 = getelementptr inbounds nuw i8, ptr %4, i64 72
  store ptr @.str.313, ptr %7, align 8
  %8 = load i32, ptr @hf_netdfs_dfs_Remove_dfs_entry_path, align 4
  %9 = tail call i32 @dissect_ndr_toplevel_pointer(ptr noundef %0, i32 noundef %1, ptr noundef %2, ptr noundef %3, ptr noundef %4, ptr noundef %5, ptr noundef nonnull @netdfs_dissect_element_dfs_Remove_dfs_entry_path_, i32 noundef 1, ptr noundef nonnull @.str.338, i32 noundef %8)
  %10 = tail call i32 @dissect_deferred_pointers(ptr noundef %2, ptr noundef %0, i32 noundef %9, ptr noundef %4, ptr noundef %5)
  %11 = load i32, ptr @hf_netdfs_dfs_Remove_servername, align 4
  %12 = tail call i32 @dissect_ndr_toplevel_pointer(ptr noundef %0, i32 noundef %10, ptr noundef %2, ptr noundef %3, ptr noundef %4, ptr noundef %5, ptr noundef nonnull @netdfs_dissect_element_dfs_Remove_servername_, i32 noundef 2, ptr noundef nonnull @.str.339, i32 noundef %11)
  %13 = tail call i32 @dissect_deferred_pointers(ptr noundef %2, ptr noundef %0, i32 noundef %12, ptr noundef %4, ptr noundef %5)
  %14 = load i32, ptr @hf_netdfs_dfs_Remove_sharename, align 4
  %15 = tail call i32 @dissect_ndr_toplevel_pointer(ptr noundef %0, i32 noundef %13, ptr noundef %2, ptr noundef %3, ptr noundef %4, ptr noundef %5, ptr noundef nonnull @netdfs_dissect_element_dfs_Remove_sharename_, i32 noundef 2, ptr noundef nonnull @.str.340, i32 noundef %14)
  %16 = tail call i32 @dissect_deferred_pointers(ptr noundef %2, ptr noundef %0, i32 noundef %15, ptr noundef %4, ptr noundef %5)
  ret i32 %16
}